; Function Attrs: nounwind uwtable
define dso_local ptr @git_path_merge_head(ptr noundef captures(none) %0) local_unnamed_addr #3 {
  %2 = getelementptr inbounds nuw i8, ptr %0, i64 200
  %3 = load ptr, ptr %2, align 8, !tbaa !109
  %.not = icmp eq ptr %3, null
  br i1 %.not, label %4, label %6

4:                                                ; preds = %1
  %5 = tail call ptr (ptr, ptr, ...) @repo_git_path(ptr noundef nonnull %0, ptr noundef nonnull @.str.33)
  store ptr %5, ptr %2, align 8, !tbaa !109
  br label %6

6:                                                ; preds = %4, %1
  %7 = phi ptr [ %5, %4 ], [ %3, %1 ]
  ret ptr %7
}